; Function Attrs: mustprogress nofree norecurse nosync nounwind willreturn memory(read, inaccessiblemem: none) uwtable
define noundef i32 @_ZNK4pkpy15CodeEmitContext8get_loopEv(ptr noundef nonnull readonly align 8 captures(none) dereferenceable(232) %0) local_unnamed_addr #4 align 2 {
  %2 = getelementptr inbounds nuw i8, ptr %0, i64 120
  %.05 = load i32, ptr %2, align 8
  %3 = icmp sgt i32 %.05, -1
  br i1 %3, label %.lr.ph, label %._crit_edge

.lr.ph:                                           ; preds = %1
  %4 = getelementptr inbounds nuw i8, ptr %0, i64 24
  %5 = load ptr, ptr %4, align 8
  %6 = getelementptr inbounds nuw i8, ptr %5, i64 304
  %7 = load ptr, ptr %6, align 8
  br label %11

8:                                                ; preds = %11
  %9 = getelementptr inbounds nuw i8, ptr %13, i64 4
  %.0 = load i32, ptr %9, align 4
  %10 = icmp sgt i32 %.0, -1
  br i1 %10, label %11, label %._crit_edge, !llvm.loop !4

11:                                               ; preds = %.lr.ph, %8
  %.06 = phi i32 [ %.05, %.lr.ph ], [ %.0, %8 ]
  %12 = zext nneg i32 %.06 to i64
  %13 = getelementptr inbounds nuw %"struct.pkpy::CodeBlock", ptr %7, i64 %12
  %14 = load i32, ptr %13, align 4
  %.off = add i32 %14, -1
  %switch = icmp ult i32 %.off, 2
  br i1 %switch, label %._crit_edge, label %8

._crit_edge:                                      ; preds = %8, %11, %1
  %.0.lcssa = phi i32 [ %.05, %1 ], [ %.06, %11 ], [ %.0, %8 ]
  ret i32 %.0.lcssa
}